target datalayout = "e-m:e-p270:32:32-p271:32:32-p272:64:64-i64:64-i128:128-f80:128-n8:16:32:64-S128"
target triple = "x86_64-pc-linux-gnu"

%struct.yyguts_t = type { ptr, ptr, ptr, i64, i64, ptr, i8, i32, i32, ptr, i32, i32, i32, i32, i32, ptr, ptr, ptr, i32, i32, ptr, i32, i32, ptr, ptr }
%struct.core_yy_extra_type = type { ptr, i64, ptr, ptr, i32, i8, i8, ptr, i32, i32, i32, i32, ptr, i32, i32, i8, i8 }

; Function Attrs: nounwind uwtable
define dso_local i32 @scanner_errposition(i32 noundef %0, ptr noundef %1) #0 {
  %3 = alloca i32, align 4
  %4 = alloca i32, align 4
  %5 = alloca ptr, align 8
  %6 = alloca i32, align 4
  %7 = alloca i32, align 4
  store i32 %0, ptr %4, align 4
  store ptr %1, ptr %5, align 8
  call void @llvm.lifetime.start.p0(i64 4, ptr %6) #13
  %8 = load i32, ptr %4, align 4
  %9 = icmp slt i32 %8, 0
  br i1 %9, label %10, label %11

10:                                               ; preds = %2
  store i32 0, ptr %3, align 4
  store i32 1, ptr %7, align 4
  br label %22

11:                                               ; preds = %2
  %12 = load ptr, ptr %5, align 8
  %13 = getelementptr inbounds nuw %struct.yyguts_t, ptr %12, i32 0, i32 0
  %14 = load ptr, ptr %13, align 8
  %15 = getelementptr inbounds nuw %struct.core_yy_extra_type, ptr %14, i32 0, i32 0
  %16 = load ptr, ptr %15, align 8
  %17 = load i32, ptr %4, align 4
  %18 = call i32 @pg_mbstrlen_with_len(ptr noundef %16, i32 noundef %17)
  %19 = add i32 %18, 1
  store i32 %19, ptr %6, align 4
  %20 = load i32, ptr %6, align 4
  %21 = call i32 @errposition(i32 noundef %20)
  store i32 %21, ptr %3, align 4
  store i32 1, ptr %7, align 4
  br label %22

22:                                               ; preds = %11, %10
  call void @llvm.lifetime.end.p0(i64 4, ptr %6) #13
  %23 = load i32, ptr %3, align 4
  ret i32 %23
}