; Function Attrs: nounwind uwtable
define dso_local i32 @scanner_errposition(i32 noundef %0, ptr noundef readonly captures(none) %1) local_unnamed_addr #0 {
  %3 = icmp slt i32 %0, 0
  br i1 %3, label %10, label %4

4:                                                ; preds = %2
  %5 = load ptr, ptr %1, align 8
  %6 = load ptr, ptr %5, align 8
  %7 = tail call i32 @pg_mbstrlen_with_len(ptr noundef %6, i32 noundef %0) #22
  %8 = add i32 %7, 1
  %9 = tail call i32 @errposition(i32 noundef %8) #22
  br label %10

10:                                               ; preds = %2, %4
  %.0 = phi i32 [ %9, %4 ], [ 0, %2 ]
  ret i32 %.0
}